target datalayout = "e-m:e-p270:32:32-p271:32:32-p272:64:64-i64:64-i128:128-f80:128-n8:16:32:64-S128"
target triple = "x86_64-pc-linux-gnu"

@alias_hash_table = internal global ptr null, align 8

; Function Attrs: nounwind uwtable
define internal ptr @pmix_mca_base_alias_lookup_internal(ptr noundef %0) #0 {
  %2 = alloca ptr, align 8
  %3 = alloca ptr, align 8
  %4 = alloca ptr, align 8
  %5 = alloca i32, align 4
  store ptr %0, ptr %3, align 8, !tbaa !40
  call void @llvm.lifetime.start.p0(i64 8, ptr %4) #12
  store ptr null, ptr %4, align 8, !tbaa !3
  %6 = load ptr, ptr @alias_hash_table, align 8, !tbaa !31
  %7 = icmp eq ptr null, %6
  br i1 %7, label %8, label %9

8:                                                ; preds = %1
  store ptr null, ptr %2, align 8
  store i32 1, ptr %5, align 4
  br label %16

9:                                                ; preds = %1
  %10 = load ptr, ptr @alias_hash_table, align 8, !tbaa !31
  %11 = load ptr, ptr %3, align 8, !tbaa !40
  %12 = load ptr, ptr %3, align 8, !tbaa !40
  %13 = call i64 @strlen(ptr noundef %12) #15
  %14 = call i32 @pmix_hash_table_get_value_ptr(ptr noundef %10, ptr noundef %11, i64 noundef %13, ptr noundef %4)
  %15 = load ptr, ptr %4, align 8, !tbaa !3
  store ptr %15, ptr %2, align 8
  store i32 1, ptr %5, align 4
  br label %16

16:                                               ; preds = %9, %8
  call void @llvm.lifetime.end.p0(i64 8, ptr %4) #12
  %17 = load ptr, ptr %2, align 8
  ret ptr %17
}

; Function Attrs: nounwind uwtable
define ptr @pmix_mca_base_alias_lookup(ptr noundef %0, ptr noundef %1, ptr noundef %2) #0 {
  %4 = alloca ptr, align 8
  %5 = alloca ptr, align 8
  %6 = alloca ptr, align 8
  %7 = alloca ptr, align 8
  %8 = alloca ptr, align 8
  %9 = alloca ptr, align 8
  store ptr %0, ptr %5, align 8, !tbaa !40
  store ptr %1, ptr %6, align 8, !tbaa !40
  store ptr %2, ptr %7, align 8, !tbaa !40
  %10 = load ptr, ptr %7, align 8, !tbaa !40
  %11 = icmp eq ptr null, %10
  br i1 %11, label %12, label %13

12:                                               ; preds = %3
  store ptr null, ptr %4, align 8
  br label %22

13:                                               ; preds = %3
  call void @llvm.lifetime.start.p0(i64 8, ptr %8) #12
  %14 = load ptr, ptr %5, align 8, !tbaa !40
  %15 = load ptr, ptr %6, align 8, !tbaa !40
  %16 = load ptr, ptr %7, align 8, !tbaa !40
  %17 = call ptr @pmix_mca_base_alias_generate_name(ptr noundef %14, ptr noundef %15, ptr noundef %16)
  store ptr %17, ptr %8, align 8, !tbaa !40
  call void @llvm.lifetime.start.p0(i64 8, ptr %9) #12
  %18 = load ptr, ptr %8, align 8, !tbaa !40
  %19 = call ptr @pmix_mca_base_alias_lookup_internal(ptr noundef %18)
  store ptr %19, ptr %9, align 8, !tbaa !3
  %20 = load ptr, ptr %8, align 8, !tbaa !40
  call void @free(ptr noundef %20) #12
  %21 = load ptr, ptr %9, align 8, !tbaa !3
  store ptr %21, ptr %4, align 8
  call void @llvm.lifetime.end.p0(i64 8, ptr %9) #12
  call void @llvm.lifetime.end.p0(i64 8, ptr %8) #12
  br label %22

22:                                               ; preds = %13, %12
  %23 = load ptr, ptr %4, align 8
  ret ptr %23
}