; Function Attrs: nounwind uwtable
define ptr @pmix_mca_base_alias_lookup(ptr noundef captures(address_is_null) %0, ptr noundef captures(address_is_null) %1, ptr noundef readonly captures(address_is_null) %2) local_unnamed_addr #0 {
  %4 = alloca ptr, align 8
  %5 = icmp eq ptr %2, null
  br i1 %5, label %14, label %6

6:                                                ; preds = %3
  %7 = tail call fastcc ptr @pmix_mca_base_alias_generate_name(ptr noundef %0, ptr noundef %1, ptr noundef %2)
  call void @llvm.lifetime.start.p0(i64 8, ptr nonnull %4) #17
  store ptr null, ptr %4, align 8, !tbaa !40
  %8 = load ptr, ptr @alias_hash_table, align 8, !tbaa !34
  %9 = icmp eq ptr %8, null
  br i1 %9, label %pmix_mca_base_alias_lookup_internal.exit, label %10

10:                                               ; preds = %6
  %11 = tail call i64 @strlen(ptr noundef nonnull dereferenceable(1) %7) #22
  %12 = call i32 @pmix_hash_table_get_value_ptr(ptr noundef nonnull %8, ptr noundef nonnull %7, i64 noundef %11, ptr noundef nonnull %4) #17
  %13 = load ptr, ptr %4, align 8, !tbaa !40
  br label %pmix_mca_base_alias_lookup_internal.exit

pmix_mca_base_alias_lookup_internal.exit:         ; preds = %6, %10
  %.0.i = phi ptr [ %13, %10 ], [ null, %6 ]
  call void @llvm.lifetime.end.p0(i64 8, ptr nonnull %4) #17
  call void @free(ptr noundef %7) #17
  br label %14

14:                                               ; preds = %3, %pmix_mca_base_alias_lookup_internal.exit
  %.0 = phi ptr [ %.0.i, %pmix_mca_base_alias_lookup_internal.exit ], [ null, %3 ]
  ret ptr %.0
}